; Function Attrs: mustprogress uwtable
define internal fastcc noundef zeroext i1 @_ZN9__gnu_cxx5__ops15_Iter_comp_iterIN5zxing6qrcode12_GLOBAL__N_115BestComparator2EEclINS_17__normal_iteratorIPNS2_3RefINS3_13FinderPatternEEESt6vectorISB_SaISB_EEEESG_EEbT_T0_(ptr nocapture readonly %0, ptr nocapture readonly %1) unnamed_addr #0 align 2 personality ptr @__gxx_personality_v0 {
  %3 = alloca %"class.zxing::Ref.21", align 8
  %4 = alloca %"class.zxing::Ref.21", align 8
  %5 = load ptr, ptr %0, align 8
  %.not.i.i = icmp eq ptr %5, null
  br i1 %.not.i.i, label %_ZN5zxing3RefINS_6qrcode13FinderPatternEEC2ERKS3_.exit, label %6

6:                                                ; preds = %2
  %7 = getelementptr inbounds i8, ptr %5, i64 8
  %8 = load i32, ptr %7, align 8
  %9 = add i32 %8, 1
  store i32 %9, ptr %7, align 8
  br label %_ZN5zxing3RefINS_6qrcode13FinderPatternEEC2ERKS3_.exit

_ZN5zxing3RefINS_6qrcode13FinderPatternEEC2ERKS3_.exit: ; preds = %6, %2
  store ptr %5, ptr %3, align 8
  %10 = load ptr, ptr %1, align 8
  %.not.i.i4 = icmp eq ptr %10, null
  br i1 %.not.i.i4, label %15, label %11

11:                                               ; preds = %_ZN5zxing3RefINS_6qrcode13FinderPatternEEC2ERKS3_.exit
  %12 = getelementptr inbounds i8, ptr %10, i64 8
  %13 = load i32, ptr %12, align 8
  %14 = add i32 %13, 1
  store i32 %14, ptr %12, align 8
  br label %15

15:                                               ; preds = %_ZN5zxing3RefINS_6qrcode13FinderPatternEEC2ERKS3_.exit, %11
  store ptr %10, ptr %4, align 8
  %16 = invoke fastcc noundef zeroext i1 @_ZN5zxing6qrcode12_GLOBAL__N_115BestComparator2clENS_3RefINS0_13FinderPatternEEES5_(ptr noundef nonnull %3, ptr noundef nonnull %4)
          to label %17 unwind label %36

17:                                               ; preds = %15
  br i1 %.not.i.i4, label %_ZN5zxing3RefINS_6qrcode13FinderPatternEED2Ev.exit, label %18

18:                                               ; preds = %17
  %19 = getelementptr inbounds i8, ptr %10, i64 8
  %20 = load i32, ptr %19, align 8
  %21 = add i32 %20, -1
  store i32 %21, ptr %19, align 8
  %22 = icmp eq i32 %21, 0
  br i1 %22, label %23, label %_ZN5zxing3RefINS_6qrcode13FinderPatternEED2Ev.exit

23:                                               ; preds = %18
  store i32 -559026175, ptr %19, align 8
  %24 = load ptr, ptr %10, align 8
  %25 = getelementptr inbounds i8, ptr %24, i64 8
  %26 = load ptr, ptr %25, align 8
  tail call void %26(ptr noundef nonnull align 8 dereferenceable(12) %10) #22
  br label %_ZN5zxing3RefINS_6qrcode13FinderPatternEED2Ev.exit

_ZN5zxing3RefINS_6qrcode13FinderPatternEED2Ev.exit: ; preds = %17, %18, %23
  br i1 %.not.i.i, label %_ZN5zxing3RefINS_6qrcode13FinderPatternEED2Ev.exit9, label %27

27:                                               ; preds = %_ZN5zxing3RefINS_6qrcode13FinderPatternEED2Ev.exit
  %28 = getelementptr inbounds i8, ptr %5, i64 8
  %29 = load i32, ptr %28, align 8
  %30 = add i32 %29, -1
  store i32 %30, ptr %28, align 8
  %31 = icmp eq i32 %30, 0
  br i1 %31, label %32, label %_ZN5zxing3RefINS_6qrcode13FinderPatternEED2Ev.exit9

32:                                               ; preds = %27
  store i32 -559026175, ptr %28, align 8
  %33 = load ptr, ptr %5, align 8
  %34 = getelementptr inbounds i8, ptr %33, i64 8
  %35 = load ptr, ptr %34, align 8
  tail call void %35(ptr noundef nonnull align 8 dereferenceable(12) %5) #22
  br label %_ZN5zxing3RefINS_6qrcode13FinderPatternEED2Ev.exit9

_ZN5zxing3RefINS_6qrcode13FinderPatternEED2Ev.exit9: ; preds = %_ZN5zxing3RefINS_6qrcode13FinderPatternEED2Ev.exit, %27, %32
  ret i1 %16

36:                                               ; preds = %15
  %37 = landingpad { ptr, i32 }
          cleanup
  br i1 %.not.i.i4, label %_ZN5zxing3RefINS_6qrcode13FinderPatternEED2Ev.exit11, label %38

38:                                               ; preds = %36
  %39 = getelementptr inbounds i8, ptr %10, i64 8
  %40 = load i32, ptr %39, align 8
  %41 = add i32 %40, -1
  store i32 %41, ptr %39, align 8
  %42 = icmp eq i32 %41, 0
  br i1 %42, label %43, label %_ZN5zxing3RefINS_6qrcode13FinderPatternEED2Ev.exit11

43:                                               ; preds = %38
  store i32 -559026175, ptr %39, align 8
  %44 = load ptr, ptr %10, align 8
  %45 = getelementptr inbounds i8, ptr %44, i64 8
  %46 = load ptr, ptr %45, align 8
  tail call void %46(ptr noundef nonnull align 8 dereferenceable(12) %10) #22
  br label %_ZN5zxing3RefINS_6qrcode13FinderPatternEED2Ev.exit11

_ZN5zxing3RefINS_6qrcode13FinderPatternEED2Ev.exit11: ; preds = %43, %38, %36
  br i1 %.not.i.i, label %_ZN5zxing3RefINS_6qrcode13FinderPatternEED2Ev.exit13, label %47

47:                                               ; preds = %_ZN5zxing3RefINS_6qrcode13FinderPatternEED2Ev.exit11
  %48 = getelementptr inbounds i8, ptr %5, i64 8
  %49 = load i32, ptr %48, align 8
  %50 = add i32 %49, -1
  store i32 %50, ptr %48, align 8
  %51 = icmp eq i32 %50, 0
  br i1 %51, label %52, label %_ZN5zxing3RefINS_6qrcode13FinderPatternEED2Ev.exit13

52:                                               ; preds = %47
  store i32 -559026175, ptr %48, align 8
  %53 = load ptr, ptr %5, align 8
  %54 = getelementptr inbounds i8, ptr %53, i64 8
  %55 = load ptr, ptr %54, align 8
  tail call void %55(ptr noundef nonnull align 8 dereferenceable(12) %5) #22
  br label %_ZN5zxing3RefINS_6qrcode13FinderPatternEED2Ev.exit13

_ZN5zxing3RefINS_6qrcode13FinderPatternEED2Ev.exit13: ; preds = %_ZN5zxing3RefINS_6qrcode13FinderPatternEED2Ev.exit11, %47, %52
  resume { ptr, i32 } %37
}